target datalayout = "e-m:e-p270:32:32-p271:32:32-p272:64:64-i64:64-i128:128-f80:128-n8:16:32:64-S128"
target triple = "x86_64-pc-linux-gnu"

%class.NativeCallStack = type { [4 x ptr] }

@.str = private unnamed_addr constant [40 x i8] c"src/hotspot/share/memory/allocation.cpp\00", align 1
@.str.5 = private unnamed_addr constant [15 x i8] c"ReallocateHeap\00", align 1
@_ZN10MemTracker15_tracking_levelE = external global i32, align 4

; Function Attrs: mustprogress nounwind uwtable
define linkonce_odr hidden void @_ZN15NativeCallStackC2ENS_10FakeMarkerE(ptr noundef nonnull align 8 dereferenceable(32) %0, i32 noundef %1) unnamed_addr #1 comdat align 2 {
  %3 = alloca ptr, align 8
  %4 = alloca i32, align 4
  store ptr %0, ptr %3, align 8
  store i32 %1, ptr %4, align 4
  ret void
}

; Function Attrs: mustprogress nounwind uwtable
define linkonce_odr hidden noundef i32 @_ZN10MemTracker14tracking_levelEv() #1 comdat align 2 {
  %1 = load i32, ptr @_ZN10MemTracker15_tracking_levelE, align 4
  ret i32 %1
}

; Function Attrs: mustprogress nounwind uwtable
define hidden noundef ptr @_Z14ReallocateHeapPcm8MEMFLAGSN17AllocFailStrategy13AllocFailEnumE(ptr noundef %0, i64 noundef %1, i8 noundef zeroext %2, i32 noundef %3) #1 {
  %5 = alloca ptr, align 8
  %6 = alloca i64, align 8
  %7 = alloca i8, align 1
  %8 = alloca i32, align 4
  %9 = alloca ptr, align 8
  %10 = alloca %class.NativeCallStack, align 8
  store ptr %0, ptr %5, align 8
  store i64 %1, ptr %6, align 8
  store i8 %2, ptr %7, align 1
  store i32 %3, ptr %8, align 4
  %11 = load ptr, ptr %5, align 8
  %12 = load i64, ptr %6, align 8
  %13 = load i8, ptr %7, align 1
  %14 = call noundef i32 @_ZN10MemTracker14tracking_levelEv()
  %15 = icmp eq i32 %14, 3
  br i1 %15, label %16, label %17

16:                                               ; preds = %4
  call void @_ZN15NativeCallStackC1Ei(ptr noundef nonnull align 8 dereferenceable(32) %10, i32 noundef 1)
  br label %18

17:                                               ; preds = %4
  call void @_ZN15NativeCallStackC2ENS_10FakeMarkerE(ptr noundef nonnull align 8 dereferenceable(32) %10, i32 noundef 0)
  br label %18

18:                                               ; preds = %17, %16
  %19 = call noundef ptr @_ZN2os7reallocEPvm8MEMFLAGSRK15NativeCallStack(ptr noundef %11, i64 noundef %12, i8 noundef zeroext %13, ptr noundef nonnull align 8 dereferenceable(32) %10)
  store ptr %19, ptr %9, align 8
  %20 = load ptr, ptr %9, align 8
  %21 = icmp eq ptr %20, null
  br i1 %21, label %22, label %29

22:                                               ; preds = %18
  %23 = load i32, ptr %8, align 4
  %24 = icmp eq i32 %23, 0
  br i1 %24, label %25, label %29

25:                                               ; preds = %22
  br label %26

26:                                               ; preds = %25
  %27 = load i64, ptr %6, align 8
  call void (ptr, i32, i64, i32, ptr, ...) @_Z23report_vm_out_of_memoryPKcim11VMErrorTypeS0_z(ptr noundef @.str, i32 noundef 61, i64 noundef %27, i32 noundef -536870911, ptr noundef @.str.5) #4
  unreachable

28:                                               ; No predecessors!
  br label %29

29:                                               ; preds = %28, %22, %18
  %30 = load ptr, ptr %9, align 8
  ret ptr %30
}