; Function Attrs: mustprogress nounwind uwtable
define hidden noundef ptr @_Z14ReallocateHeapPcm8MEMFLAGSN17AllocFailStrategy13AllocFailEnumE(ptr noundef %0, i64 noundef %1, i8 noundef zeroext %2, i32 noundef %3) local_unnamed_addr #0 {
  %5 = alloca %class.NativeCallStack, align 8
  %6 = load i32, ptr @_ZN10MemTracker15_tracking_levelE, align 4
  %7 = icmp eq i32 %6, 3
  br i1 %7, label %8, label %9

8:                                                ; preds = %4
  call void @_ZN15NativeCallStackC1Ei(ptr noundef nonnull align 8 dereferenceable(32) %5, i32 noundef 1) #3
  br label %9

9:                                                ; preds = %4, %8
  %10 = call noundef ptr @_ZN2os7reallocEPvm8MEMFLAGSRK15NativeCallStack(ptr noundef %0, i64 noundef %1, i8 noundef zeroext %2, ptr noundef nonnull align 8 dereferenceable(32) %5) #3
  %11 = icmp eq ptr %10, null
  %12 = icmp eq i32 %3, 0
  %or.cond = and i1 %12, %11
  br i1 %or.cond, label %13, label %14

13:                                               ; preds = %9
  call void (ptr, i32, i64, i32, ptr, ...) @_Z23report_vm_out_of_memoryPKcim11VMErrorTypeS0_z(ptr noundef nonnull @.str, i32 noundef 61, i64 noundef %1, i32 noundef -536870911, ptr noundef nonnull @.str.5) #4
  unreachable

14:                                               ; preds = %9
  ret ptr %10
}